; ModuleID = '4/437.c'
source_filename = "4/437.c"
target datalayout = "e-m:e-p270:32:32-p271:32:32-p272:64:64-i64:64-f80:128-n8:16:32:64-S128"
target triple = "x86_64-pc-linux-gnu"

@.str = private unnamed_addr constant [6 x i8] c"%d %d\00", align 1
@n = common dso_local global i32 0, align 4
@m = common dso_local global i32 0, align 4
@i = common dso_local global i32 0, align 4
@j = common dso_local global i32 0, align 4
@.str.1 = private unnamed_addr constant [3 x i8] c"%d\00", align 1
@a = common dso_local global [200 x [200 x i32]] zeroinitializer, align 16
@flag = common dso_local global i32 0, align 4
@f = common dso_local global [200 x [200 x i32]] zeroinitializer, align 16
@si = common dso_local global i32 0, align 4
@sj = common dso_local global i32 0, align 4
@.str.2 = private unnamed_addr constant [4 x i8] c"%d\0A\00", align 1

; Function Attrs: noinline nounwind uwtable
define dso_local i32 @main() #0 {
  %1 = alloca i32, align 4
  store i32 0, i32* %1, align 4
  %2 = call i32 (i8*, ...) @__isoc99_scanf(i8* getelementptr inbounds ([6 x i8], [6 x i8]* @.str, i64 0, i64 0), i32* @n, i32* @m)
  store i32 1, i32* @i, align 4
  br label %3

3:                                                ; preds = %24, %0
  %4 = load i32, i32* @i, align 4
  %5 = load i32, i32* @n, align 4
  %6 = icmp sle i32 %4, %5
  br i1 %6, label %7, label %27

7:                                                ; preds = %3
  store i32 1, i32* @j, align 4
  br label %8

8:                                                ; preds = %20, %7
  %9 = load i32, i32* @j, align 4
  %10 = load i32, i32* @m, align 4
  %11 = icmp sle i32 %9, %10
  br i1 %11, label %12, label %23

12:                                               ; preds = %8
  %13 = load i32, i32* @i, align 4
  %14 = sext i32 %13 to i64
  %15 = getelementptr inbounds [200 x [200 x i32]], [200 x [200 x i32]]* @a, i64 0, i64 %14
  %16 = load i32, i32* @j, align 4
  %17 = sext i32 %16 to i64
  %18 = getelementptr inbounds [200 x i32], [200 x i32]* %15, i64 0, i64 %17
  %19 = call i32 (i8*, ...) @__isoc99_scanf(i8* getelementptr inbounds ([3 x i8], [3 x i8]* @.str.1, i64 0, i64 0), i32* %18)
  br label %20

20:                                               ; preds = %12
  %21 = load i32, i32* @j, align 4
  %22 = add nsw i32 %21, 1
  store i32 %22, i32* @j, align 4
  br label %8

23:                                               ; preds = %8
  br label %24

24:                                               ; preds = %23
  %25 = load i32, i32* @i, align 4
  %26 = add nsw i32 %25, 1
  store i32 %26, i32* @i, align 4
  br label %3

27:                                               ; preds = %3
  br label %28

28:                                               ; preds = %27, %115
  store i32 0, i32* @flag, align 4
  store i32 1, i32* @i, align 4
  br label %29

29:                                               ; preds = %44, %28
  %30 = load i32, i32* @i, align 4
  %31 = load i32, i32* @m, align 4
  %32 = icmp sle i32 %30, %31
  br i1 %32, label %33, label %47

33:                                               ; preds = %29
  %34 = load i32, i32* @i, align 4
  %35 = sext i32 %34 to i64
  %36 = getelementptr inbounds [200 x i32], [200 x i32]* getelementptr inbounds ([200 x [200 x i32]], [200 x [200 x i32]]* @f, i64 0, i64 1), i64 0, i64 %35
  %37 = load i32, i32* %36, align 4
  %38 = icmp eq i32 %37, 0
  br i1 %38, label %39, label %43

39:                                               ; preds = %33
  store i32 1, i32* @flag, align 4
  %40 = load i32, i32* @i, align 4
  %41 = sext i32 %40 to i64
  %42 = getelementptr inbounds [200 x i32], [200 x i32]* getelementptr inbounds ([200 x [200 x i32]], [200 x [200 x i32]]* @f, i64 0, i64 1), i64 0, i64 %41
  store i32 1, i32* %42, align 4
  br label %47

43:                                               ; preds = %33
  br label %44

44:                                               ; preds = %43
  %45 = load i32, i32* @i, align 4
  %46 = add nsw i32 %45, 1
  store i32 %46, i32* @i, align 4
  br label %29

47:                                               ; preds = %39, %29
  %48 = load i32, i32* @flag, align 4
  %49 = icmp eq i32 %48, 0
  br i1 %49, label %50, label %76

50:                                               ; preds = %47
  store i32 1, i32* @i, align 4
  br label %51

51:                                               ; preds = %72, %50
  %52 = load i32, i32* @i, align 4
  %53 = load i32, i32* @n, align 4
  %54 = icmp sle i32 %52, %53
  br i1 %54, label %55, label %75

55:                                               ; preds = %51
  %56 = load i32, i32* @i, align 4
  %57 = sext i32 %56 to i64
  %58 = getelementptr inbounds [200 x [200 x i32]], [200 x [200 x i32]]* @f, i64 0, i64 %57
  %59 = load i32, i32* @m, align 4
  %60 = sext i32 %59 to i64
  %61 = getelementptr inbounds [200 x i32], [200 x i32]* %58, i64 0, i64 %60
  %62 = load i32, i32* %61, align 4
  %63 = icmp eq i32 %62, 0
  br i1 %63, label %64, label %71

64:                                               ; preds = %55
  store i32 2, i32* @flag, align 4
  %65 = load i32, i32* @i, align 4
  %66 = sext i32 %65 to i64
  %67 = getelementptr inbounds [200 x [200 x i32]], [200 x [200 x i32]]* @f, i64 0, i64 %66
  %68 = load i32, i32* @m, align 4
  %69 = sext i32 %68 to i64
  %70 = getelementptr inbounds [200 x i32], [200 x i32]* %67, i64 0, i64 %69
  store i32 1, i32* %70, align 4
  br label %75

71:                                               ; preds = %55
  br label %72

72:                                               ; preds = %71
  %73 = load i32, i32* @i, align 4
  %74 = add nsw i32 %73, 1
  store i32 %74, i32* @i, align 4
  br label %51

75:                                               ; preds = %64, %51
  br label %76

76:                                               ; preds = %75, %47
  %77 = load i32, i32* @flag, align 4
  %78 = icmp eq i32 %77, 1
  br i1 %78, label %79, label %81

79:                                               ; preds = %76
  store i32 1, i32* @si, align 4
  %80 = load i32, i32* @i, align 4
  store i32 %80, i32* @sj, align 4
  br label %81

81:                                               ; preds = %79, %76
  %82 = load i32, i32* @flag, align 4
  %83 = icmp eq i32 %82, 2
  br i1 %83, label %84, label %87

84:                                               ; preds = %81
  %85 = load i32, i32* @i, align 4
  store i32 %85, i32* @si, align 4
  %86 = load i32, i32* @m, align 4
  store i32 %86, i32* @sj, align 4
  br label %87

87:                                               ; preds = %84, %81
  %88 = load i32, i32* @flag, align 4
  %89 = icmp eq i32 %88, 0
  br i1 %89, label %90, label %91

90:                                               ; preds = %87
  ret i32 0

91:                                               ; preds = %87
  br label %92

92:                                               ; preds = %110, %91
  %93 = load i32, i32* @si, align 4
  %94 = load i32, i32* @n, align 4
  %95 = icmp sle i32 %93, %94
  br i1 %95, label %96, label %99

96:                                               ; preds = %92
  %97 = load i32, i32* @sj, align 4
  %98 = icmp sge i32 %97, 1
  br label %99

99:                                               ; preds = %96, %92
  %100 = phi i1 [ false, %92 ], [ %98, %96 ]
  br i1 %100, label %101, label %115

101:                                              ; preds = %99
  %102 = load i32, i32* @si, align 4
  %103 = sext i32 %102 to i64
  %104 = getelementptr inbounds [200 x [200 x i32]], [200 x [200 x i32]]* @a, i64 0, i64 %103
  %105 = load i32, i32* @sj, align 4
  %106 = sext i32 %105 to i64
  %107 = getelementptr inbounds [200 x i32], [200 x i32]* %104, i64 0, i64 %106
  %108 = load i32, i32* %107, align 4
  %109 = call i32 (i8*, ...) @printf(i8* getelementptr inbounds ([4 x i8], [4 x i8]* @.str.2, i64 0, i64 0), i32 %108)
  br label %110

110:                                              ; preds = %101
  %111 = load i32, i32* @si, align 4
  %112 = add nsw i32 %111, 1
  store i32 %112, i32* @si, align 4
  %113 = load i32, i32* @sj, align 4
  %114 = add nsw i32 %113, -1
  store i32 %114, i32* @sj, align 4
  br label %92

115:                                              ; preds = %99
  br label %28
}

declare dso_local i32 @__isoc99_scanf(i8*, ...) #1

declare dso_local i32 @printf(i8*, ...) #1


!llvm.module.flags = !{!0}
!llvm.ident = !{!1}

!0 = !{i32 1, !"wchar_size", i32 4}
!1 = !{!"clang version 10.0.0-4ubuntu1 "}
